; Function Attrs: nounwind uwtable
define internal i32 @lsarpc_dissect_lsa_SetSecObj_request(ptr noundef %0, i32 noundef %1, ptr noundef %2, ptr noundef %3, ptr noundef initializes((80, 88)) %4, ptr noundef %5) #0 {
  %7 = alloca i32, align 4
  %8 = getelementptr inbounds nuw i8, ptr %4, i64 80
  store ptr @.str.1009, ptr %8, align 8
  %9 = load i32, ptr @hf_lsarpc_lsa_SetSecObj_handle, align 4
  %10 = tail call i32 @dissect_ndr_toplevel_pointer(ptr noundef %0, i32 noundef %1, ptr noundef %2, ptr noundef %3, ptr noundef %4, ptr noundef %5, ptr noundef nonnull @lsarpc_dissect_element_lsa_SetSecObj_handle_, i32 noundef 1, ptr noundef nonnull @.str.1139, i32 noundef %9) #5
  %11 = tail call i32 @dissect_deferred_pointers(ptr noundef %2, ptr noundef %0, i32 noundef %10, ptr noundef %4, ptr noundef %5) #5
  %12 = load i32, ptr @hf_lsarpc_lsa_SetSecObj_sec_info, align 4
  call void @llvm.lifetime.start.p0(i64 4, ptr nonnull %7)
  %13 = getelementptr inbounds nuw i8, ptr %4, i64 28
  %14 = load i32, ptr %13, align 4
  %.not.i.i = icmp ne i32 %14, 0
  %15 = and i32 %11, 3
  %.not14.i.i = icmp eq i32 %15, 0
  %or.cond.i.i = or i1 %.not14.i.i, %.not.i.i
  %16 = and i32 %11, -4
  %17 = add i32 %16, 4
  %.0.i.i = select i1 %or.cond.i.i, i32 %11, i32 %17
  %18 = load i8, ptr %5, align 1
  %19 = and i8 %18, 16
  %20 = zext nneg i8 %19 to i32
  %21 = shl nuw i32 %20, 27
  %22 = tail call ptr @proto_tree_add_item(ptr noundef %3, i32 noundef %12, ptr noundef %0, i32 noundef %.0.i.i, i32 noundef 4, i32 noundef %21) #5
  %23 = call i32 @dissect_ndr_uint32(ptr noundef %0, i32 noundef %.0.i.i, ptr noundef %2, ptr noundef %3, ptr noundef %4, ptr noundef nonnull %5, i32 noundef -1, ptr noundef nonnull %7) #5
  call void @llvm.lifetime.end.p0(i64 4, ptr nonnull %7)
  %24 = call i32 @dissect_deferred_pointers(ptr noundef %2, ptr noundef %0, i32 noundef %23, ptr noundef %4, ptr noundef nonnull %5) #5
  %25 = load i32, ptr @hf_lsarpc_lsa_SetSecObj_sdbuf, align 4
  %26 = call i32 @dissect_ndr_toplevel_pointer(ptr noundef %0, i32 noundef %24, ptr noundef %2, ptr noundef %3, ptr noundef %4, ptr noundef nonnull %5, ptr noundef nonnull @lsarpc_dissect_element_lsa_SetSecObj_sdbuf_, i32 noundef 1, ptr noundef nonnull @.str.1144, i32 noundef %25) #5
  %27 = call i32 @dissect_deferred_pointers(ptr noundef %2, ptr noundef %0, i32 noundef %26, ptr noundef %4, ptr noundef nonnull %5) #5
  ret i32 %27
}